; Listing generated by Microsoft (R) Optimizing Compiler Version 19.16.27045.0 

	TITLE	D:\stm32_ws\board\JointManipulator_Master\JMM_LCD_V1\JMM_LCD\TouchGFX\generated\images\src\BitmapDatabase.cpp
	.686P
	.XMM
	include listing.inc
	.model	flat

INCLUDELIB MSVCRTD
INCLUDELIB OLDNAMES

msvcjmc	SEGMENT
__3F1E7DBE_types@hpp DB 01H
__838C8304_bitmap@hpp DB 01H
__1C0F5082_bitmapdatabase@cpp DB 01H
msvcjmc	ENDS
PUBLIC	?getInstance@BitmapDatabase@@YAPBUBitmapData@Bitmap@touchgfx@@XZ ; BitmapDatabase::getInstance
PUBLIC	?getInstanceSize@BitmapDatabase@@YAGXZ		; BitmapDatabase::getInstanceSize
PUBLIC	__JustMyCode_Default
EXTRN	@__CheckForDebuggerJustMyCode@4:PROC
EXTRN	__RTC_CheckEsp:PROC
EXTRN	__RTC_InitBase:PROC
EXTRN	__RTC_Shutdown:PROC
EXTRN	?image_circle_indicator_bg_line_half@@3QBEB:BYTE ; image_circle_indicator_bg_line_half
EXTRN	?image_circle_indicator_fill_line_half@@3QBEB:BYTE ; image_circle_indicator_fill_line_half
EXTRN	?image_dark_buttons_round_edge_small_pressed@@3QBEB:BYTE ; image_dark_buttons_round_edge_small_pressed
EXTRN	?image_dark_progressindicators_bg_large_circle_indicator_bg_line_half@@3QBEB:BYTE ; image_dark_progressindicators_bg_large_circle_indicator_bg_line_half
EXTRN	?image_dark_progressindicators_bg_medium_circle_indicator_bg_full@@3QBEB:BYTE ; image_dark_progressindicators_bg_medium_circle_indicator_bg_full
EXTRN	?image_dark_progressindicators_fill_large_circle_indicator_fill_line_half@@3QBEB:BYTE ; image_dark_progressindicators_fill_large_circle_indicator_fill_line_half
EXTRN	?image_dark_progressindicators_fill_medium_circle_indicator_fill_full@@3QBEB:BYTE ; image_dark_progressindicators_fill_medium_circle_indicator_fill_full
EXTRN	?image_dark_togglebars_toggle_round_large_button_off@@3QBEB:BYTE ; image_dark_togglebars_toggle_round_large_button_off
EXTRN	?image_dark_togglebars_toggle_round_large_button_on@@3QBEB:BYTE ; image_dark_togglebars_toggle_round_large_button_on
EXTRN	?image_id@@3QBEB:BYTE				; image_id
_BSS	SEGMENT
?bitmap_database@@3QBUBitmapData@Bitmap@touchgfx@@B DB 0c8H DUP (?) ; bitmap_database
_BSS	ENDS
CRT$XCU	SEGMENT
?bitmap_database$initializer$@@3P6AXXZA DD FLAT:??__Ebitmap_database@@YAXXZ ; bitmap_database$initializer$
CRT$XCU	ENDS
;	COMDAT rtc$TMZ
rtc$TMZ	SEGMENT
__RTC_Shutdown.rtc$TMZ DD FLAT:__RTC_Shutdown
rtc$TMZ	ENDS
;	COMDAT rtc$IMZ
rtc$IMZ	SEGMENT
__RTC_InitBase.rtc$IMZ DD FLAT:__RTC_InitBase
rtc$IMZ	ENDS
; Function compile flags: /Odt
;	COMDAT __JustMyCode_Default
_TEXT	SEGMENT
__JustMyCode_Default PROC				; COMDAT
	push	ebp
	mov	ebp, esp
	pop	ebp
	ret	0
__JustMyCode_Default ENDP
_TEXT	ENDS
; Function compile flags: /Odtp /RTCsu /ZI
;	COMDAT ??__Ebitmap_database@@YAXXZ
text$di	SEGMENT
??__Ebitmap_database@@YAXXZ PROC			; `dynamic initializer for 'bitmap_database'', COMDAT
; File d:\stm32_ws\board\jointmanipulator_master\jmm_lcd_v1\jmm_lcd\touchgfx\generated\images\src\bitmapdatabase.cpp
; Line 29
	push	ebp
	mov	ebp, esp
	sub	esp, 192				; 000000c0H
	push	ebx
	push	esi
	push	edi
	lea	edi, DWORD PTR [ebp-192]
	mov	ecx, 48					; 00000030H
	mov	eax, -858993460				; ccccccccH
	rep stosd
	mov	ecx, OFFSET __1C0F5082_bitmapdatabase@cpp
	call	@__CheckForDebuggerJustMyCode@4
; Line 19
	mov	DWORD PTR ?bitmap_database@@3QBUBitmapData@Bitmap@touchgfx@@B, OFFSET ?image_circle_indicator_bg_line_half@@3QBEB ; image_circle_indicator_bg_line_half
	mov	DWORD PTR ?bitmap_database@@3QBUBitmapData@Bitmap@touchgfx@@B+4, 0
	mov	eax, 86					; 00000056H
	mov	WORD PTR ?bitmap_database@@3QBUBitmapData@Bitmap@touchgfx@@B+8, ax
	mov	eax, 45					; 0000002dH
	mov	WORD PTR ?bitmap_database@@3QBUBitmapData@Bitmap@touchgfx@@B+10, ax
	mov	eax, 23					; 00000017H
	mov	WORD PTR ?bitmap_database@@3QBUBitmapData@Bitmap@touchgfx@@B+12, ax
	mov	eax, 5
	mov	WORD PTR ?bitmap_database@@3QBUBitmapData@Bitmap@touchgfx@@B+14, ax
	mov	eax, 40					; 00000028H
	mov	WORD PTR ?bitmap_database@@3QBUBitmapData@Bitmap@touchgfx@@B+16, ax
	mov	eax, 16394				; 0000400aH
	mov	WORD PTR ?bitmap_database@@3QBUBitmapData@Bitmap@touchgfx@@B+18, ax
; Line 20
	mov	DWORD PTR ?bitmap_database@@3QBUBitmapData@Bitmap@touchgfx@@B+20, OFFSET ?image_circle_indicator_fill_line_half@@3QBEB ; image_circle_indicator_fill_line_half
	mov	DWORD PTR ?bitmap_database@@3QBUBitmapData@Bitmap@touchgfx@@B+24, 0
	mov	eax, 86					; 00000056H
	mov	WORD PTR ?bitmap_database@@3QBUBitmapData@Bitmap@touchgfx@@B+28, ax
	mov	eax, 45					; 0000002dH
	mov	WORD PTR ?bitmap_database@@3QBUBitmapData@Bitmap@touchgfx@@B+30, ax
	mov	eax, 29					; 0000001dH
	mov	WORD PTR ?bitmap_database@@3QBUBitmapData@Bitmap@touchgfx@@B+32, ax
	mov	eax, 4
	mov	WORD PTR ?bitmap_database@@3QBUBitmapData@Bitmap@touchgfx@@B+34, ax
	mov	eax, 28					; 0000001cH
	mov	WORD PTR ?bitmap_database@@3QBUBitmapData@Bitmap@touchgfx@@B+36, ax
	mov	eax, 16394				; 0000400aH
	mov	WORD PTR ?bitmap_database@@3QBUBitmapData@Bitmap@touchgfx@@B+38, ax
; Line 21
	mov	DWORD PTR ?bitmap_database@@3QBUBitmapData@Bitmap@touchgfx@@B+40, OFFSET ?image_dark_buttons_round_edge_small_pressed@@3QBEB ; image_dark_buttons_round_edge_small_pressed
	mov	DWORD PTR ?bitmap_database@@3QBUBitmapData@Bitmap@touchgfx@@B+44, 0
	mov	eax, 170				; 000000aaH
	mov	WORD PTR ?bitmap_database@@3QBUBitmapData@Bitmap@touchgfx@@B+48, ax
	mov	eax, 60					; 0000003cH
	mov	WORD PTR ?bitmap_database@@3QBUBitmapData@Bitmap@touchgfx@@B+50, ax
	mov	eax, 11					; 0000000bH
	mov	WORD PTR ?bitmap_database@@3QBUBitmapData@Bitmap@touchgfx@@B+52, ax
	mov	eax, 4
	mov	WORD PTR ?bitmap_database@@3QBUBitmapData@Bitmap@touchgfx@@B+54, ax
	mov	eax, 148				; 00000094H
	mov	WORD PTR ?bitmap_database@@3QBUBitmapData@Bitmap@touchgfx@@B+56, ax
	mov	eax, 16434				; 00004032H
	mov	WORD PTR ?bitmap_database@@3QBUBitmapData@Bitmap@touchgfx@@B+58, ax
; Line 22
	mov	DWORD PTR ?bitmap_database@@3QBUBitmapData@Bitmap@touchgfx@@B+60, OFFSET ?image_dark_progressindicators_bg_large_circle_indicator_bg_line_half@@3QBEB ; image_dark_progressindicators_bg_large_circle_indicator_bg_line_half
	mov	DWORD PTR ?bitmap_database@@3QBUBitmapData@Bitmap@touchgfx@@B+64, 0
	mov	eax, 184				; 000000b8H
	mov	WORD PTR ?bitmap_database@@3QBUBitmapData@Bitmap@touchgfx@@B+68, ax
	mov	eax, 94					; 0000005eH
	mov	WORD PTR ?bitmap_database@@3QBUBitmapData@Bitmap@touchgfx@@B+70, ax
	mov	eax, 62					; 0000003eH
	mov	WORD PTR ?bitmap_database@@3QBUBitmapData@Bitmap@touchgfx@@B+72, ax
	mov	eax, 5
	mov	WORD PTR ?bitmap_database@@3QBUBitmapData@Bitmap@touchgfx@@B+74, ax
	mov	eax, 60					; 0000003cH
	mov	WORD PTR ?bitmap_database@@3QBUBitmapData@Bitmap@touchgfx@@B+76, ax
	mov	eax, 16398				; 0000400eH
	mov	WORD PTR ?bitmap_database@@3QBUBitmapData@Bitmap@touchgfx@@B+78, ax
; Line 23
	mov	DWORD PTR ?bitmap_database@@3QBUBitmapData@Bitmap@touchgfx@@B+80, OFFSET ?image_dark_progressindicators_bg_medium_circle_indicator_bg_full@@3QBEB ; image_dark_progressindicators_bg_medium_circle_indicator_bg_full
	mov	DWORD PTR ?bitmap_database@@3QBUBitmapData@Bitmap@touchgfx@@B+84, 0
	mov	eax, 104				; 00000068H
	mov	WORD PTR ?bitmap_database@@3QBUBitmapData@Bitmap@touchgfx@@B+88, ax
	mov	eax, 104				; 00000068H
	mov	WORD PTR ?bitmap_database@@3QBUBitmapData@Bitmap@touchgfx@@B+90, ax
	mov	eax, 16					; 00000010H
	mov	WORD PTR ?bitmap_database@@3QBUBitmapData@Bitmap@touchgfx@@B+92, ax
	mov	eax, 15					; 0000000fH
	mov	WORD PTR ?bitmap_database@@3QBUBitmapData@Bitmap@touchgfx@@B+94, ax
	mov	eax, 72					; 00000048H
	mov	WORD PTR ?bitmap_database@@3QBUBitmapData@Bitmap@touchgfx@@B+96, ax
	mov	eax, 16458				; 0000404aH
	mov	WORD PTR ?bitmap_database@@3QBUBitmapData@Bitmap@touchgfx@@B+98, ax
; Line 24
	mov	DWORD PTR ?bitmap_database@@3QBUBitmapData@Bitmap@touchgfx@@B+100, OFFSET ?image_dark_progressindicators_fill_large_circle_indicator_fill_line_half@@3QBEB ; image_dark_progressindicators_fill_large_circle_indicator_fill_line_half
	mov	DWORD PTR ?bitmap_database@@3QBUBitmapData@Bitmap@touchgfx@@B+104, 0
	mov	eax, 184				; 000000b8H
	mov	WORD PTR ?bitmap_database@@3QBUBitmapData@Bitmap@touchgfx@@B+108, ax
	mov	eax, 94					; 0000005eH
	mov	WORD PTR ?bitmap_database@@3QBUBitmapData@Bitmap@touchgfx@@B+110, ax
	mov	eax, 63					; 0000003fH
	mov	WORD PTR ?bitmap_database@@3QBUBitmapData@Bitmap@touchgfx@@B+112, ax
	mov	eax, 7
	mov	WORD PTR ?bitmap_database@@3QBUBitmapData@Bitmap@touchgfx@@B+114, ax
	mov	eax, 58					; 0000003aH
	mov	WORD PTR ?bitmap_database@@3QBUBitmapData@Bitmap@touchgfx@@B+116, ax
	mov	eax, 16394				; 0000400aH
	mov	WORD PTR ?bitmap_database@@3QBUBitmapData@Bitmap@touchgfx@@B+118, ax
; Line 25
	mov	DWORD PTR ?bitmap_database@@3QBUBitmapData@Bitmap@touchgfx@@B+120, OFFSET ?image_dark_progressindicators_fill_medium_circle_indicator_fill_full@@3QBEB ; image_dark_progressindicators_fill_medium_circle_indicator_fill_full
	mov	DWORD PTR ?bitmap_database@@3QBUBitmapData@Bitmap@touchgfx@@B+124, 0
	mov	eax, 104				; 00000068H
	mov	WORD PTR ?bitmap_database@@3QBUBitmapData@Bitmap@touchgfx@@B+128, ax
	mov	eax, 104				; 00000068H
	mov	WORD PTR ?bitmap_database@@3QBUBitmapData@Bitmap@touchgfx@@B+130, ax
	mov	eax, 17					; 00000011H
	mov	WORD PTR ?bitmap_database@@3QBUBitmapData@Bitmap@touchgfx@@B+132, ax
	mov	eax, 17					; 00000011H
	mov	WORD PTR ?bitmap_database@@3QBUBitmapData@Bitmap@touchgfx@@B+134, ax
	mov	eax, 70					; 00000046H
	mov	WORD PTR ?bitmap_database@@3QBUBitmapData@Bitmap@touchgfx@@B+136, ax
	mov	eax, 16454				; 00004046H
	mov	WORD PTR ?bitmap_database@@3QBUBitmapData@Bitmap@touchgfx@@B+138, ax
; Line 26
	mov	DWORD PTR ?bitmap_database@@3QBUBitmapData@Bitmap@touchgfx@@B+140, OFFSET ?image_dark_togglebars_toggle_round_large_button_off@@3QBEB ; image_dark_togglebars_toggle_round_large_button_off
	mov	DWORD PTR ?bitmap_database@@3QBUBitmapData@Bitmap@touchgfx@@B+144, 0
	mov	eax, 128				; 00000080H
	mov	WORD PTR ?bitmap_database@@3QBUBitmapData@Bitmap@touchgfx@@B+148, ax
	mov	eax, 38					; 00000026H
	mov	WORD PTR ?bitmap_database@@3QBUBitmapData@Bitmap@touchgfx@@B+150, ax
	mov	eax, 13					; 0000000dH
	mov	WORD PTR ?bitmap_database@@3QBUBitmapData@Bitmap@touchgfx@@B+152, ax
	mov	eax, 1
	mov	WORD PTR ?bitmap_database@@3QBUBitmapData@Bitmap@touchgfx@@B+154, ax
	mov	eax, 102				; 00000066H
	mov	WORD PTR ?bitmap_database@@3QBUBitmapData@Bitmap@touchgfx@@B+156, ax
	mov	eax, 16420				; 00004024H
	mov	WORD PTR ?bitmap_database@@3QBUBitmapData@Bitmap@touchgfx@@B+158, ax
; Line 27
	mov	DWORD PTR ?bitmap_database@@3QBUBitmapData@Bitmap@touchgfx@@B+160, OFFSET ?image_dark_togglebars_toggle_round_large_button_on@@3QBEB ; image_dark_togglebars_toggle_round_large_button_on
	mov	DWORD PTR ?bitmap_database@@3QBUBitmapData@Bitmap@touchgfx@@B+164, 0
	mov	eax, 128				; 00000080H
	mov	WORD PTR ?bitmap_database@@3QBUBitmapData@Bitmap@touchgfx@@B+168, ax
	mov	eax, 38					; 00000026H
	mov	WORD PTR ?bitmap_database@@3QBUBitmapData@Bitmap@touchgfx@@B+170, ax
	mov	eax, 13					; 0000000dH
	mov	WORD PTR ?bitmap_database@@3QBUBitmapData@Bitmap@touchgfx@@B+172, ax
	mov	eax, 1
	mov	WORD PTR ?bitmap_database@@3QBUBitmapData@Bitmap@touchgfx@@B+174, ax
	mov	eax, 102				; 00000066H
	mov	WORD PTR ?bitmap_database@@3QBUBitmapData@Bitmap@touchgfx@@B+176, ax
	mov	eax, 16420				; 00004024H
	mov	WORD PTR ?bitmap_database@@3QBUBitmapData@Bitmap@touchgfx@@B+178, ax
; Line 28
	mov	DWORD PTR ?bitmap_database@@3QBUBitmapData@Bitmap@touchgfx@@B+180, OFFSET ?image_id@@3QBEB ; image_id
	mov	DWORD PTR ?bitmap_database@@3QBUBitmapData@Bitmap@touchgfx@@B+184, 0
	mov	eax, 86					; 00000056H
	mov	WORD PTR ?bitmap_database@@3QBUBitmapData@Bitmap@touchgfx@@B+188, ax
	mov	eax, 34					; 00000022H
	mov	WORD PTR ?bitmap_database@@3QBUBitmapData@Bitmap@touchgfx@@B+190, ax
	mov	eax, 3
	mov	WORD PTR ?bitmap_database@@3QBUBitmapData@Bitmap@touchgfx@@B+192, ax
	xor	eax, eax
	mov	WORD PTR ?bitmap_database@@3QBUBitmapData@Bitmap@touchgfx@@B+194, ax
	mov	eax, 80					; 00000050H
	mov	WORD PTR ?bitmap_database@@3QBUBitmapData@Bitmap@touchgfx@@B+196, ax
	mov	eax, 16418				; 00004022H
	mov	WORD PTR ?bitmap_database@@3QBUBitmapData@Bitmap@touchgfx@@B+198, ax
	pop	edi
	pop	esi
	pop	ebx
	add	esp, 192				; 000000c0H
	cmp	ebp, esp
	call	__RTC_CheckEsp
	mov	esp, ebp
	pop	ebp
	ret	0
??__Ebitmap_database@@YAXXZ ENDP			; `dynamic initializer for 'bitmap_database''
text$di	ENDS
; Function compile flags: /Odtp /RTCsu /ZI
;	COMDAT ?getInstanceSize@BitmapDatabase@@YAGXZ
_TEXT	SEGMENT
?getInstanceSize@BitmapDatabase@@YAGXZ PROC		; BitmapDatabase::getInstanceSize, COMDAT
; File d:\stm32_ws\board\jointmanipulator_master\jmm_lcd_v1\jmm_lcd\touchgfx\generated\images\src\bitmapdatabase.cpp
; Line 39
	push	ebp
	mov	ebp, esp
	sub	esp, 192				; 000000c0H
	push	ebx
	push	esi
	push	edi
	lea	edi, DWORD PTR [ebp-192]
	mov	ecx, 48					; 00000030H
	mov	eax, -858993460				; ccccccccH
	rep stosd
	mov	ecx, OFFSET __1C0F5082_bitmapdatabase@cpp
	call	@__CheckForDebuggerJustMyCode@4
; Line 40
	mov	eax, 10					; 0000000aH
; Line 41
	pop	edi
	pop	esi
	pop	ebx
	add	esp, 192				; 000000c0H
	cmp	ebp, esp
	call	__RTC_CheckEsp
	mov	esp, ebp
	pop	ebp
	ret	0
?getInstanceSize@BitmapDatabase@@YAGXZ ENDP		; BitmapDatabase::getInstanceSize
_TEXT	ENDS
; Function compile flags: /Odtp /RTCsu /ZI
;	COMDAT ?getInstance@BitmapDatabase@@YAPBUBitmapData@Bitmap@touchgfx@@XZ
_TEXT	SEGMENT
?getInstance@BitmapDatabase@@YAPBUBitmapData@Bitmap@touchgfx@@XZ PROC ; BitmapDatabase::getInstance, COMDAT
; File d:\stm32_ws\board\jointmanipulator_master\jmm_lcd_v1\jmm_lcd\touchgfx\generated\images\src\bitmapdatabase.cpp
; Line 34
	push	ebp
	mov	ebp, esp
	sub	esp, 192				; 000000c0H
	push	ebx
	push	esi
	push	edi
	lea	edi, DWORD PTR [ebp-192]
	mov	ecx, 48					; 00000030H
	mov	eax, -858993460				; ccccccccH
	rep stosd
	mov	ecx, OFFSET __1C0F5082_bitmapdatabase@cpp
	call	@__CheckForDebuggerJustMyCode@4
; Line 35
	mov	eax, OFFSET ?bitmap_database@@3QBUBitmapData@Bitmap@touchgfx@@B
; Line 36
	pop	edi
	pop	esi
	pop	ebx
	add	esp, 192				; 000000c0H
	cmp	ebp, esp
	call	__RTC_CheckEsp
	mov	esp, ebp
	pop	ebp
	ret	0
?getInstance@BitmapDatabase@@YAPBUBitmapData@Bitmap@touchgfx@@XZ ENDP ; BitmapDatabase::getInstance
_TEXT	ENDS
END
